target datalayout = "e-m:e-p270:32:32-p271:32:32-p272:64:64-i64:64-i128:128-f80:128-n8:16:32:64-S128"
target triple = "x86_64-pc-linux-gnu"

%struct.ExprEvalStep = type { i64, ptr, ptr, %union.anon }
%union.anon = type { %struct.anon.23 }
%struct.anon.23 = type { ptr, ptr, i32, i32, ptr, ptr }
%struct.FunctionCallInfoBaseData = type { ptr, ptr, ptr, i32, i8, i16, [0 x %struct.NullableDatum] }
%struct.NullableDatum = type { i64, i8 }
%struct.anon.6 = type { ptr, ptr, ptr, i32, i8 }
%struct.PgStat_FunctionCallUsage = type { ptr, %struct.instr_time, %struct.instr_time, %struct.instr_time }
%struct.instr_time = type { i64 }

; Function Attrs: nounwind uwtable
define dso_local void @ExecEvalFuncExprStrictFusage(ptr noundef %0, ptr noundef %1, ptr noundef %2) #0 {
  %4 = alloca ptr, align 8
  %5 = alloca ptr, align 8
  %6 = alloca ptr, align 8
  %7 = alloca ptr, align 8
  %8 = alloca %struct.PgStat_FunctionCallUsage, align 8
  %9 = alloca ptr, align 8
  %10 = alloca i32, align 4
  %11 = alloca i64, align 8
  %12 = alloca i32, align 4
  %13 = alloca i32, align 4
  store ptr %0, ptr %4, align 8
  store ptr %1, ptr %5, align 8
  store ptr %2, ptr %6, align 8
  call void @llvm.lifetime.start.p0(i64 8, ptr %7) #11
  %14 = load ptr, ptr %5, align 8
  %15 = getelementptr inbounds nuw %struct.ExprEvalStep, ptr %14, i32 0, i32 3
  %16 = getelementptr inbounds nuw %struct.anon.6, ptr %15, i32 0, i32 1
  %17 = load ptr, ptr %16, align 8
  store ptr %17, ptr %7, align 8
  call void @llvm.lifetime.start.p0(i64 32, ptr %8) #11
  call void @llvm.lifetime.start.p0(i64 8, ptr %9) #11
  %18 = load ptr, ptr %7, align 8
  %19 = getelementptr inbounds nuw %struct.FunctionCallInfoBaseData, ptr %18, i32 0, i32 6
  %20 = getelementptr inbounds [0 x %struct.NullableDatum], ptr %19, i64 0, i64 0
  store ptr %20, ptr %9, align 8
  call void @llvm.lifetime.start.p0(i64 4, ptr %10) #11
  %21 = load ptr, ptr %5, align 8
  %22 = getelementptr inbounds nuw %struct.ExprEvalStep, ptr %21, i32 0, i32 3
  %23 = getelementptr inbounds nuw %struct.anon.6, ptr %22, i32 0, i32 3
  %24 = load i32, ptr %23, align 8
  store i32 %24, ptr %10, align 4
  call void @llvm.lifetime.start.p0(i64 8, ptr %11) #11
  call void @llvm.lifetime.start.p0(i64 4, ptr %12) #11
  store i32 0, ptr %12, align 4
  br label %25

25:                                               ; preds = %43, %3
  %26 = load i32, ptr %12, align 4
  %27 = load i32, ptr %10, align 4
  %28 = icmp slt i32 %26, %27
  br i1 %28, label %30, label %29

29:                                               ; preds = %25
  store i32 2, ptr %13, align 4
  br label %46

30:                                               ; preds = %25
  %31 = load ptr, ptr %9, align 8
  %32 = load i32, ptr %12, align 4
  %33 = sext i32 %32 to i64
  %34 = getelementptr inbounds %struct.NullableDatum, ptr %31, i64 %33
  %35 = getelementptr inbounds nuw %struct.NullableDatum, ptr %34, i32 0, i32 1
  %36 = load i8, ptr %35, align 8, !range !7, !noundef !8
  %37 = trunc i8 %36 to i1
  br i1 %37, label %38, label %42

38:                                               ; preds = %30
  %39 = load ptr, ptr %5, align 8
  %40 = getelementptr inbounds nuw %struct.ExprEvalStep, ptr %39, i32 0, i32 2
  %41 = load ptr, ptr %40, align 8
  store i8 1, ptr %41, align 1
  store i32 1, ptr %13, align 4
  br label %46

42:                                               ; preds = %30
  br label %43

43:                                               ; preds = %42
  %44 = load i32, ptr %12, align 4
  %45 = add i32 %44, 1
  store i32 %45, ptr %12, align 4
  br label %25, !llvm.loop !15

46:                                               ; preds = %38, %29
  call void @llvm.lifetime.end.p0(i64 4, ptr %12) #11
  %47 = load i32, ptr %13, align 4
  switch i32 %47, label %70 [
    i32 2, label %48
  ]

48:                                               ; preds = %46
  %49 = load ptr, ptr %7, align 8
  call void @pgstat_init_function_usage(ptr noundef %49, ptr noundef %8)
  %50 = load ptr, ptr %7, align 8
  %51 = getelementptr inbounds nuw %struct.FunctionCallInfoBaseData, ptr %50, i32 0, i32 4
  store i8 0, ptr %51, align 4
  %52 = load ptr, ptr %5, align 8
  %53 = getelementptr inbounds nuw %struct.ExprEvalStep, ptr %52, i32 0, i32 3
  %54 = getelementptr inbounds nuw %struct.anon.6, ptr %53, i32 0, i32 2
  %55 = load ptr, ptr %54, align 8
  %56 = load ptr, ptr %7, align 8
  %57 = call i64 %55(ptr noundef %56)
  store i64 %57, ptr %11, align 8
  %58 = load i64, ptr %11, align 8
  %59 = load ptr, ptr %5, align 8
  %60 = getelementptr inbounds nuw %struct.ExprEvalStep, ptr %59, i32 0, i32 1
  %61 = load ptr, ptr %60, align 8
  store i64 %58, ptr %61, align 8
  %62 = load ptr, ptr %7, align 8
  %63 = getelementptr inbounds nuw %struct.FunctionCallInfoBaseData, ptr %62, i32 0, i32 4
  %64 = load i8, ptr %63, align 4, !range !7, !noundef !8
  %65 = trunc i8 %64 to i1
  %66 = load ptr, ptr %5, align 8
  %67 = getelementptr inbounds nuw %struct.ExprEvalStep, ptr %66, i32 0, i32 2
  %68 = load ptr, ptr %67, align 8
  %69 = zext i1 %65 to i8
  store i8 %69, ptr %68, align 1
  call void @pgstat_end_function_usage(ptr noundef %8, i1 noundef zeroext true)
  store i32 0, ptr %13, align 4
  br label %70

70:                                               ; preds = %48, %46
  call void @llvm.lifetime.end.p0(i64 8, ptr %11) #11
  call void @llvm.lifetime.end.p0(i64 4, ptr %10) #11
  call void @llvm.lifetime.end.p0(i64 8, ptr %9) #11
  call void @llvm.lifetime.end.p0(i64 32, ptr %8) #11
  call void @llvm.lifetime.end.p0(i64 8, ptr %7) #11
  %71 = load i32, ptr %13, align 4
  switch i32 %71, label %73 [
    i32 0, label %72
    i32 1, label %72
  ]

72:                                               ; preds = %70, %70
  ret void

73:                                               ; preds = %70
  unreachable
}