; Function Attrs: nounwind uwtable
define dso_local void @ExecEvalFuncExprStrictFusage(ptr noundef readnone captures(none) %0, ptr noundef readonly captures(none) %1, ptr noundef readnone captures(none) %2) local_unnamed_addr #0 {
  %4 = alloca %struct.PgStat_FunctionCallUsage, align 8
  %5 = getelementptr inbounds nuw i8, ptr %1, i64 32
  %6 = load ptr, ptr %5, align 8
  call void @llvm.lifetime.start.p0(i64 32, ptr nonnull %4) #18
  %7 = getelementptr inbounds nuw i8, ptr %1, i64 48
  %8 = load i32, ptr %7, align 8
  %.not18 = icmp sgt i32 %8, 0
  br i1 %.not18, label %.lr.ph, label %.critedge

.lr.ph:                                           ; preds = %3
  %9 = getelementptr i8, ptr %6, i64 40
  %wide.trip.count = zext nneg i32 %8 to i64
  br label %11

10:                                               ; preds = %11
  %indvars.iv.next = add nuw nsw i64 %indvars.iv, 1
  %exitcond.not = icmp eq i64 %indvars.iv.next, %wide.trip.count
  br i1 %exitcond.not, label %.critedge, label %11, !llvm.loop !13

11:                                               ; preds = %.lr.ph, %10
  %indvars.iv = phi i64 [ 0, %.lr.ph ], [ %indvars.iv.next, %10 ]
  %.idx = shl nuw nsw i64 %indvars.iv, 4
  %12 = getelementptr i8, ptr %9, i64 %.idx
  %13 = load i8, ptr %12, align 8, !range !8, !noundef !9
  %14 = trunc nuw i8 %13 to i1
  br i1 %14, label %15, label %10

15:                                               ; preds = %11
  %16 = getelementptr inbounds nuw i8, ptr %1, i64 16
  %17 = load ptr, ptr %16, align 8
  store i8 1, ptr %17, align 1
  br label %27

.critedge:                                        ; preds = %10, %3
  call void @pgstat_init_function_usage(ptr noundef %6, ptr noundef nonnull %4) #18
  %18 = getelementptr inbounds nuw i8, ptr %6, i64 28
  store i8 0, ptr %18, align 4
  %19 = getelementptr inbounds nuw i8, ptr %1, i64 40
  %20 = load ptr, ptr %19, align 8
  %21 = call i64 %20(ptr noundef %6) #18
  %22 = getelementptr inbounds nuw i8, ptr %1, i64 8
  %23 = load ptr, ptr %22, align 8
  store i64 %21, ptr %23, align 8
  %24 = load i8, ptr %18, align 4, !range !8, !noundef !9
  %25 = getelementptr inbounds nuw i8, ptr %1, i64 16
  %26 = load ptr, ptr %25, align 8
  store i8 %24, ptr %26, align 1
  call void @pgstat_end_function_usage(ptr noundef nonnull %4, i1 noundef zeroext true) #18
  br label %27

27:                                               ; preds = %15, %.critedge
  call void @llvm.lifetime.end.p0(i64 32, ptr nonnull %4) #18
  ret void
}